target datalayout = "e-m:e-p270:32:32-p271:32:32-p272:64:64-i64:64-i128:128-f80:128-n8:16:32:64-S128"
target triple = "x86_64-pc-linux-gnu"

; Function Attrs: mustprogress nounwind uwtable
define noundef zeroext i1 @_Z20coco_string_endswithPKwS0_(ptr noundef %0, ptr noundef %1) #0 {
  %3 = alloca ptr, align 8
  %4 = alloca ptr, align 8
  %5 = alloca i32, align 4
  %6 = alloca i32, align 4
  store ptr %0, ptr %3, align 8
  store ptr %1, ptr %4, align 8
  %7 = load ptr, ptr %3, align 8
  %8 = call i64 @wcslen(ptr noundef %7) #16
  %9 = trunc i64 %8 to i32
  store i32 %9, ptr %5, align 4
  %10 = load ptr, ptr %4, align 8
  %11 = call i64 @wcslen(ptr noundef %10) #16
  %12 = trunc i64 %11 to i32
  store i32 %12, ptr %6, align 4
  %13 = load i32, ptr %6, align 4
  %14 = load i32, ptr %5, align 4
  %15 = icmp sle i32 %13, %14
  br i1 %15, label %16, label %28

16:                                               ; preds = %2
  %17 = load ptr, ptr %3, align 8
  %18 = load i32, ptr %5, align 4
  %19 = sext i32 %18 to i64
  %20 = getelementptr inbounds i32, ptr %17, i64 %19
  %21 = load i32, ptr %6, align 4
  %22 = sext i32 %21 to i64
  %23 = sub i64 0, %22
  %24 = getelementptr inbounds i32, ptr %20, i64 %23
  %25 = load ptr, ptr %4, align 8
  %26 = call i32 @wcscmp(ptr noundef %24, ptr noundef %25) #16
  %27 = icmp eq i32 %26, 0
  br label %28

28:                                               ; preds = %16, %2
  %29 = phi i1 [ false, %2 ], [ %27, %16 ]
  ret i1 %29
}