; Function Attrs: mustprogress nofree nounwind willreturn memory(read) uwtable
define noundef zeroext i1 @_Z20coco_string_endswithPKwS0_(ptr noundef readonly %0, ptr noundef readonly %1) local_unnamed_addr #9 {
  %3 = tail call i64 @wcslen(ptr noundef %0) #24
  %4 = trunc i64 %3 to i32
  %5 = tail call i64 @wcslen(ptr noundef %1) #24
  %6 = trunc i64 %5 to i32
  %.not = icmp sgt i32 %6, %4
  br i1 %.not, label %15, label %7

7:                                                ; preds = %2
  %sext = shl i64 %3, 32
  %8 = ashr exact i64 %sext, 32
  %9 = getelementptr inbounds i32, ptr %0, i64 %8
  %sext8 = shl i64 %5, 32
  %10 = ashr exact i64 %sext8, 32
  %11 = sub nsw i64 0, %10
  %12 = getelementptr inbounds i32, ptr %9, i64 %11
  %13 = tail call i32 @wcscmp(ptr noundef %12, ptr noundef %1) #24
  %14 = icmp eq i32 %13, 0
  br label %15

15:                                               ; preds = %7, %2
  %16 = phi i1 [ false, %2 ], [ %14, %7 ]
  ret i1 %16
}